target datalayout = "e-m:e-p270:32:32-p271:32:32-p272:64:64-i64:64-i128:128-f80:128-n8:16:32:64-S128"
target triple = "x86_64-pc-linux-gnu"

%struct._cmsStage_struct = type { ptr, i32, i32, i32, i32, ptr, ptr, ptr, ptr, ptr }
%struct._cmsStageCLutData = type { %union.anon, ptr, i32, i32 }
%union.anon = type { ptr }

@.str = private unnamed_addr constant [46 x i8] c"Too many input channels (%d channels, max=%d)\00", align 1

; Function Attrs: nounwind uwtable
define internal i32 @CubeSize(ptr noundef %0, i32 noundef %1) #0 {
  %3 = alloca i32, align 4
  %4 = alloca ptr, align 8
  %5 = alloca i32, align 4
  %6 = alloca i32, align 4
  %7 = alloca i32, align 4
  store ptr %0, ptr %4, align 8
  store i32 %1, ptr %5, align 4
  store i32 1, ptr %6, align 4
  br label %8

8:                                                ; preds = %31, %2
  %9 = load i32, ptr %5, align 4
  %10 = icmp ugt i32 %9, 0
  br i1 %10, label %11, label %34

11:                                               ; preds = %8
  %12 = load ptr, ptr %4, align 8
  %13 = load i32, ptr %5, align 4
  %14 = sub i32 %13, 1
  %15 = zext i32 %14 to i64
  %16 = getelementptr inbounds i32, ptr %12, i64 %15
  %17 = load i32, ptr %16, align 4
  store i32 %17, ptr %7, align 4
  %18 = load i32, ptr %7, align 4
  %19 = icmp ule i32 %18, 1
  br i1 %19, label %20, label %21

20:                                               ; preds = %11
  store i32 0, ptr %3, align 4
  br label %40

21:                                               ; preds = %11
  %22 = load i32, ptr %7, align 4
  %23 = load i32, ptr %6, align 4
  %24 = mul i32 %23, %22
  store i32 %24, ptr %6, align 4
  %25 = load i32, ptr %6, align 4
  %26 = load i32, ptr %7, align 4
  %27 = udiv i32 -1, %26
  %28 = icmp ugt i32 %25, %27
  br i1 %28, label %29, label %30

29:                                               ; preds = %21
  store i32 0, ptr %3, align 4
  br label %40

30:                                               ; preds = %21
  br label %31

31:                                               ; preds = %30
  %32 = load i32, ptr %5, align 4
  %33 = add i32 %32, -1
  store i32 %33, ptr %5, align 4
  br label %8, !llvm.loop !20

34:                                               ; preds = %8
  %35 = load i32, ptr %6, align 4
  %36 = icmp ugt i32 %35, 286331153
  br i1 %36, label %37, label %38

37:                                               ; preds = %34
  store i32 0, ptr %3, align 4
  br label %40

38:                                               ; preds = %34
  %39 = load i32, ptr %6, align 4
  store i32 %39, ptr %3, align 4
  br label %40

40:                                               ; preds = %38, %37, %29, %20
  %41 = load i32, ptr %3, align 4
  ret i32 %41
}

; Function Attrs: nounwind uwtable
define hidden void @cmsStageFree(ptr noundef %0) #0 {
  %2 = alloca ptr, align 8
  store ptr %0, ptr %2, align 8
  %3 = load ptr, ptr %2, align 8
  %4 = getelementptr inbounds %struct._cmsStage_struct, ptr %3, i32 0, i32 7
  %5 = load ptr, ptr %4, align 8
  %6 = icmp ne ptr %5, null
  br i1 %6, label %7, label %12

7:                                                ; preds = %1
  %8 = load ptr, ptr %2, align 8
  %9 = getelementptr inbounds %struct._cmsStage_struct, ptr %8, i32 0, i32 7
  %10 = load ptr, ptr %9, align 8
  %11 = load ptr, ptr %2, align 8
  call void %10(ptr noundef %11)
  br label %12

12:                                               ; preds = %7, %1
  %13 = load ptr, ptr %2, align 8
  %14 = getelementptr inbounds %struct._cmsStage_struct, ptr %13, i32 0, i32 0
  %15 = load ptr, ptr %14, align 8
  %16 = load ptr, ptr %2, align 8
  call void @_cmsFree(ptr noundef %15, ptr noundef %16)
  ret void
}

; Function Attrs: nounwind uwtable
define hidden ptr @_cmsStageAllocPlaceholder(ptr noundef %0, i32 noundef %1, i32 noundef %2, i32 noundef %3, ptr noundef %4, ptr noundef %5, ptr noundef %6, ptr noundef %7) #0 {
  %9 = alloca ptr, align 8
  %10 = alloca ptr, align 8
  %11 = alloca i32, align 4
  %12 = alloca i32, align 4
  %13 = alloca i32, align 4
  %14 = alloca ptr, align 8
  %15 = alloca ptr, align 8
  %16 = alloca ptr, align 8
  %17 = alloca ptr, align 8
  %18 = alloca ptr, align 8
  store ptr %0, ptr %10, align 8
  store i32 %1, ptr %11, align 4
  store i32 %2, ptr %12, align 4
  store i32 %3, ptr %13, align 4
  store ptr %4, ptr %14, align 8
  store ptr %5, ptr %15, align 8
  store ptr %6, ptr %16, align 8
  store ptr %7, ptr %17, align 8
  %19 = load ptr, ptr %10, align 8
  %20 = call ptr @_cmsMallocZero(ptr noundef %19, i32 noundef 64)
  store ptr %20, ptr %18, align 8
  %21 = load ptr, ptr %18, align 8
  %22 = icmp eq ptr %21, null
  br i1 %22, label %23, label %24

23:                                               ; preds = %8
  store ptr null, ptr %9, align 8
  br label %53

24:                                               ; preds = %8
  %25 = load ptr, ptr %10, align 8
  %26 = load ptr, ptr %18, align 8
  %27 = getelementptr inbounds %struct._cmsStage_struct, ptr %26, i32 0, i32 0
  store ptr %25, ptr %27, align 8
  %28 = load i32, ptr %11, align 4
  %29 = load ptr, ptr %18, align 8
  %30 = getelementptr inbounds %struct._cmsStage_struct, ptr %29, i32 0, i32 1
  store i32 %28, ptr %30, align 8
  %31 = load i32, ptr %11, align 4
  %32 = load ptr, ptr %18, align 8
  %33 = getelementptr inbounds %struct._cmsStage_struct, ptr %32, i32 0, i32 2
  store i32 %31, ptr %33, align 4
  %34 = load i32, ptr %12, align 4
  %35 = load ptr, ptr %18, align 8
  %36 = getelementptr inbounds %struct._cmsStage_struct, ptr %35, i32 0, i32 3
  store i32 %34, ptr %36, align 8
  %37 = load i32, ptr %13, align 4
  %38 = load ptr, ptr %18, align 8
  %39 = getelementptr inbounds %struct._cmsStage_struct, ptr %38, i32 0, i32 4
  store i32 %37, ptr %39, align 4
  %40 = load ptr, ptr %14, align 8
  %41 = load ptr, ptr %18, align 8
  %42 = getelementptr inbounds %struct._cmsStage_struct, ptr %41, i32 0, i32 5
  store ptr %40, ptr %42, align 8
  %43 = load ptr, ptr %15, align 8
  %44 = load ptr, ptr %18, align 8
  %45 = getelementptr inbounds %struct._cmsStage_struct, ptr %44, i32 0, i32 6
  store ptr %43, ptr %45, align 8
  %46 = load ptr, ptr %16, align 8
  %47 = load ptr, ptr %18, align 8
  %48 = getelementptr inbounds %struct._cmsStage_struct, ptr %47, i32 0, i32 7
  store ptr %46, ptr %48, align 8
  %49 = load ptr, ptr %17, align 8
  %50 = load ptr, ptr %18, align 8
  %51 = getelementptr inbounds %struct._cmsStage_struct, ptr %50, i32 0, i32 8
  store ptr %49, ptr %51, align 8
  %52 = load ptr, ptr %18, align 8
  store ptr %52, ptr %9, align 8
  br label %53

53:                                               ; preds = %24, %23
  %54 = load ptr, ptr %9, align 8
  ret ptr %54
}

; Function Attrs: nounwind uwtable
define hidden ptr @cmsStageAllocCLut16bitGranular(ptr noundef %0, ptr noundef %1, i32 noundef %2, i32 noundef %3, ptr noundef %4) #0 {
  %6 = alloca ptr, align 8
  %7 = alloca ptr, align 8
  %8 = alloca ptr, align 8
  %9 = alloca i32, align 4
  %10 = alloca i32, align 4
  %11 = alloca ptr, align 8
  %12 = alloca i32, align 4
  %13 = alloca i32, align 4
  %14 = alloca ptr, align 8
  %15 = alloca ptr, align 8
  store ptr %0, ptr %7, align 8
  store ptr %1, ptr %8, align 8
  store i32 %2, ptr %9, align 4
  store i32 %3, ptr %10, align 4
  store ptr %4, ptr %11, align 8
  %16 = load i32, ptr %9, align 4
  %17 = icmp ugt i32 %16, 15
  br i1 %17, label %18, label %21

18:                                               ; preds = %5
  %19 = load ptr, ptr %7, align 8
  %20 = load i32, ptr %9, align 4
  call void (ptr, i32, ptr, ...) @cmsSignalError(ptr noundef %19, i32 noundef 2, ptr noundef @.str, i32 noundef %20, i32 noundef 15)
  store ptr null, ptr %6, align 8
  br label %108

21:                                               ; preds = %5
  %22 = load ptr, ptr %7, align 8
  %23 = load i32, ptr %9, align 4
  %24 = load i32, ptr %10, align 4
  %25 = call ptr @_cmsStageAllocPlaceholder(ptr noundef %22, i32 noundef 1668052340, i32 noundef %23, i32 noundef %24, ptr noundef @EvaluateCLUTfloatIn16, ptr noundef @CLUTElemDup, ptr noundef @CLutElemTypeFree, ptr noundef null)
  store ptr %25, ptr %15, align 8
  %26 = load ptr, ptr %15, align 8
  %27 = icmp eq ptr %26, null
  br i1 %27, label %28, label %29

28:                                               ; preds = %21
  store ptr null, ptr %6, align 8
  br label %108

29:                                               ; preds = %21
  %30 = load ptr, ptr %7, align 8
  %31 = call ptr @_cmsMallocZero(ptr noundef %30, i32 noundef 24)
  store ptr %31, ptr %14, align 8
  %32 = load ptr, ptr %14, align 8
  %33 = icmp eq ptr %32, null
  br i1 %33, label %34, label %36

34:                                               ; preds = %29
  %35 = load ptr, ptr %15, align 8
  call void @cmsStageFree(ptr noundef %35)
  store ptr null, ptr %6, align 8
  br label %108

36:                                               ; preds = %29
  %37 = load ptr, ptr %14, align 8
  %38 = load ptr, ptr %15, align 8
  %39 = getelementptr inbounds %struct._cmsStage_struct, ptr %38, i32 0, i32 8
  store ptr %37, ptr %39, align 8
  %40 = load i32, ptr %10, align 4
  %41 = load ptr, ptr %8, align 8
  %42 = load i32, ptr %9, align 4
  %43 = call i32 @CubeSize(ptr noundef %41, i32 noundef %42)
  %44 = mul i32 %40, %43
  store i32 %44, ptr %13, align 4
  %45 = load ptr, ptr %14, align 8
  %46 = getelementptr inbounds %struct._cmsStageCLutData, ptr %45, i32 0, i32 2
  store i32 %44, ptr %46, align 8
  %47 = load ptr, ptr %14, align 8
  %48 = getelementptr inbounds %struct._cmsStageCLutData, ptr %47, i32 0, i32 3
  store i32 0, ptr %48, align 4
  %49 = load i32, ptr %13, align 4
  %50 = icmp eq i32 %49, 0
  br i1 %50, label %51, label %53

51:                                               ; preds = %36
  %52 = load ptr, ptr %15, align 8
  call void @cmsStageFree(ptr noundef %52)
  store ptr null, ptr %6, align 8
  br label %108

53:                                               ; preds = %36
  %54 = load ptr, ptr %7, align 8
  %55 = load i32, ptr %13, align 4
  %56 = call ptr @_cmsCalloc(ptr noundef %54, i32 noundef %55, i32 noundef 2)
  %57 = load ptr, ptr %14, align 8
  %58 = getelementptr inbounds %struct._cmsStageCLutData, ptr %57, i32 0, i32 0
  store ptr %56, ptr %58, align 8
  %59 = load ptr, ptr %14, align 8
  %60 = getelementptr inbounds %struct._cmsStageCLutData, ptr %59, i32 0, i32 0
  %61 = load ptr, ptr %60, align 8
  %62 = icmp eq ptr %61, null
  br i1 %62, label %63, label %65

63:                                               ; preds = %53
  %64 = load ptr, ptr %15, align 8
  call void @cmsStageFree(ptr noundef %64)
  store ptr null, ptr %6, align 8
  br label %108

65:                                               ; preds = %53
  %66 = load ptr, ptr %11, align 8
  %67 = icmp ne ptr %66, null
  br i1 %67, label %68, label %89

68:                                               ; preds = %65
  store i32 0, ptr %12, align 4
  br label %69

69:                                               ; preds = %85, %68
  %70 = load i32, ptr %12, align 4
  %71 = load i32, ptr %13, align 4
  %72 = icmp ult i32 %70, %71
  br i1 %72, label %73, label %88

73:                                               ; preds = %69
  %74 = load ptr, ptr %11, align 8
  %75 = load i32, ptr %12, align 4
  %76 = zext i32 %75 to i64
  %77 = getelementptr inbounds i16, ptr %74, i64 %76
  %78 = load i16, ptr %77, align 2
  %79 = load ptr, ptr %14, align 8
  %80 = getelementptr inbounds %struct._cmsStageCLutData, ptr %79, i32 0, i32 0
  %81 = load ptr, ptr %80, align 8
  %82 = load i32, ptr %12, align 4
  %83 = zext i32 %82 to i64
  %84 = getelementptr inbounds i16, ptr %81, i64 %83
  store i16 %78, ptr %84, align 2
  br label %85

85:                                               ; preds = %73
  %86 = load i32, ptr %12, align 4
  %87 = add i32 %86, 1
  store i32 %87, ptr %12, align 4
  br label %69, !llvm.loop !19

88:                                               ; preds = %69
  br label %89

89:                                               ; preds = %88, %65
  %90 = load ptr, ptr %7, align 8
  %91 = load ptr, ptr %8, align 8
  %92 = load i32, ptr %9, align 4
  %93 = load i32, ptr %10, align 4
  %94 = load ptr, ptr %14, align 8
  %95 = getelementptr inbounds %struct._cmsStageCLutData, ptr %94, i32 0, i32 0
  %96 = load ptr, ptr %95, align 8
  %97 = call ptr @_cmsComputeInterpParamsEx(ptr noundef %90, ptr noundef %91, i32 noundef %92, i32 noundef %93, ptr noundef %96, i32 noundef 0)
  %98 = load ptr, ptr %14, align 8
  %99 = getelementptr inbounds %struct._cmsStageCLutData, ptr %98, i32 0, i32 1
  store ptr %97, ptr %99, align 8
  %100 = load ptr, ptr %14, align 8
  %101 = getelementptr inbounds %struct._cmsStageCLutData, ptr %100, i32 0, i32 1
  %102 = load ptr, ptr %101, align 8
  %103 = icmp eq ptr %102, null
  br i1 %103, label %104, label %106

104:                                              ; preds = %89
  %105 = load ptr, ptr %15, align 8
  call void @cmsStageFree(ptr noundef %105)
  store ptr null, ptr %6, align 8
  br label %108

106:                                              ; preds = %89
  %107 = load ptr, ptr %15, align 8
  store ptr %107, ptr %6, align 8
  br label %108

108:                                              ; preds = %106, %104, %63, %51, %34, %28, %18
  %109 = load ptr, ptr %6, align 8
  ret ptr %109
}