; Function Attrs: nounwind uwtable
define hidden ptr @cmsStageAllocCLut16bitGranular(ptr noundef %0, ptr noundef %1, i32 noundef %2, i32 noundef %3, ptr noundef readonly %4) local_unnamed_addr #0 {
  %6 = icmp ugt i32 %2, 15
  br i1 %6, label %7, label %8

7:                                                ; preds = %5
  tail call void (ptr, i32, ptr, ...) @cmsSignalError(ptr noundef %0, i32 noundef 2, ptr noundef nonnull @.str, i32 noundef %2, i32 noundef 15) #18
  br label %_cmsStageAllocPlaceholder.exit.thread

8:                                                ; preds = %5
  %9 = tail call ptr @_cmsMallocZero(ptr noundef %0, i32 noundef 64) #18
  %10 = icmp eq ptr %9, null
  br i1 %10, label %_cmsStageAllocPlaceholder.exit.thread, label %11

11:                                               ; preds = %8
  store ptr %0, ptr %9, align 8
  %12 = getelementptr inbounds i8, ptr %9, i64 8
  store i32 1668052340, ptr %12, align 8
  %13 = getelementptr inbounds i8, ptr %9, i64 12
  store i32 1668052340, ptr %13, align 4
  %14 = getelementptr inbounds i8, ptr %9, i64 16
  store i32 %2, ptr %14, align 8
  %15 = getelementptr inbounds i8, ptr %9, i64 20
  store i32 %3, ptr %15, align 4
  %16 = getelementptr inbounds i8, ptr %9, i64 24
  store ptr @EvaluateCLUTfloatIn16, ptr %16, align 8
  %17 = getelementptr inbounds i8, ptr %9, i64 32
  store ptr @CLUTElemDup, ptr %17, align 8
  %18 = getelementptr inbounds i8, ptr %9, i64 40
  store ptr @CLutElemTypeFree, ptr %18, align 8
  %19 = getelementptr inbounds i8, ptr %9, i64 48
  store ptr null, ptr %19, align 8
  %20 = tail call ptr @_cmsMallocZero(ptr noundef %0, i32 noundef 24) #18
  %21 = icmp eq ptr %20, null
  br i1 %21, label %22, label %26

22:                                               ; preds = %11
  %23 = load ptr, ptr %18, align 8
  %.not.i = icmp eq ptr %23, null
  br i1 %.not.i, label %cmsStageFree.exit, label %24

24:                                               ; preds = %22
  tail call void %23(ptr noundef nonnull %9) #18
  br label %cmsStageFree.exit

cmsStageFree.exit:                                ; preds = %22, %24
  %25 = load ptr, ptr %9, align 8
  tail call void @_cmsFree(ptr noundef %25, ptr noundef nonnull %9) #18
  br label %_cmsStageAllocPlaceholder.exit.thread

26:                                               ; preds = %11
  store ptr %20, ptr %19, align 8
  %invariant.gep.i = getelementptr i8, ptr %1, i64 -4
  %.not16.i = icmp eq i32 %2, 0
  br i1 %.not16.i, label %CubeSize.exit, label %.lr.ph.preheader.i

.lr.ph.preheader.i:                               ; preds = %26
  %27 = zext nneg i32 %2 to i64
  br label %.lr.ph.i

28:                                               ; preds = %31
  %indvars.iv.next.i = add nsw i64 %indvars.iv.i, -1
  %.not.i47 = icmp eq i64 %indvars.iv.next.i, 0
  br i1 %.not.i47, label %._crit_edge.i, label %.lr.ph.i, !llvm.loop !19

.lr.ph.i:                                         ; preds = %28, %.lr.ph.preheader.i
  %indvars.iv.i = phi i64 [ %27, %.lr.ph.preheader.i ], [ %indvars.iv.next.i, %28 ]
  %.01118.i = phi i32 [ 1, %.lr.ph.preheader.i ], [ %32, %28 ]
  %gep.i = getelementptr i32, ptr %invariant.gep.i, i64 %indvars.iv.i
  %29 = load i32, ptr %gep.i, align 4
  %.fr22.i = freeze i32 %29
  %30 = icmp ult i32 %.fr22.i, 2
  br i1 %30, label %CubeSize.exit, label %31

31:                                               ; preds = %.lr.ph.i
  %32 = mul i32 %.fr22.i, %.01118.i
  %mul.i = tail call { i32, i1 } @llvm.umul.with.overflow.i32(i32 %.fr22.i, i32 %32)
  %mul.ov.i = extractvalue { i32, i1 } %mul.i, 1
  br i1 %mul.ov.i, label %CubeSize.exit, label %28

._crit_edge.i:                                    ; preds = %28
  %33 = icmp ugt i32 %32, 286331153
  %spec.select.i = select i1 %33, i32 0, i32 %32
  br label %CubeSize.exit

CubeSize.exit:                                    ; preds = %.lr.ph.i, %31, %26, %._crit_edge.i
  %.0.i = phi i32 [ 1, %26 ], [ %spec.select.i, %._crit_edge.i ], [ 0, %31 ], [ 0, %.lr.ph.i ]
  %34 = mul i32 %.0.i, %3
  %35 = getelementptr inbounds i8, ptr %20, i64 16
  store i32 %34, ptr %35, align 8
  %36 = getelementptr inbounds i8, ptr %20, i64 20
  store i32 0, ptr %36, align 4
  %37 = icmp eq i32 %34, 0
  br i1 %37, label %38, label %42

38:                                               ; preds = %CubeSize.exit
  %39 = load ptr, ptr %18, align 8
  %.not.i48 = icmp eq ptr %39, null
  br i1 %.not.i48, label %cmsStageFree.exit49, label %40

40:                                               ; preds = %38
  tail call void %39(ptr noundef nonnull %9) #18
  br label %cmsStageFree.exit49

cmsStageFree.exit49:                              ; preds = %38, %40
  %41 = load ptr, ptr %9, align 8
  tail call void @_cmsFree(ptr noundef %41, ptr noundef nonnull %9) #18
  br label %_cmsStageAllocPlaceholder.exit.thread

42:                                               ; preds = %CubeSize.exit
  %43 = tail call ptr @_cmsCalloc(ptr noundef %0, i32 noundef %34, i32 noundef 2) #18
  store ptr %43, ptr %20, align 8
  %44 = icmp eq ptr %43, null
  br i1 %44, label %45, label %49

45:                                               ; preds = %42
  %46 = load ptr, ptr %18, align 8
  %.not.i50 = icmp eq ptr %46, null
  br i1 %.not.i50, label %cmsStageFree.exit51, label %47

47:                                               ; preds = %45
  tail call void %46(ptr noundef nonnull %9) #18
  br label %cmsStageFree.exit51

cmsStageFree.exit51:                              ; preds = %45, %47
  %48 = load ptr, ptr %9, align 8
  tail call void @_cmsFree(ptr noundef %48, ptr noundef nonnull %9) #18
  br label %_cmsStageAllocPlaceholder.exit.thread

49:                                               ; preds = %42
  %.not = icmp eq ptr %4, null
  br i1 %.not, label %.loopexit, label %.preheader.preheader

.preheader.preheader:                             ; preds = %49
  %wide.trip.count = zext i32 %34 to i64
  br label %.preheader

.preheader:                                       ; preds = %.preheader.preheader, %.preheader
  %indvars.iv = phi i64 [ 0, %.preheader.preheader ], [ %indvars.iv.next, %.preheader ]
  %50 = getelementptr inbounds i16, ptr %4, i64 %indvars.iv
  %51 = load i16, ptr %50, align 2
  %52 = load ptr, ptr %20, align 8
  %53 = getelementptr inbounds i16, ptr %52, i64 %indvars.iv
  store i16 %51, ptr %53, align 2
  %indvars.iv.next = add nuw nsw i64 %indvars.iv, 1
  %exitcond.not = icmp eq i64 %indvars.iv.next, %wide.trip.count
  br i1 %exitcond.not, label %.loopexit.loopexit, label %.preheader, !llvm.loop !20

.loopexit.loopexit:                               ; preds = %.preheader
  %.pre = load ptr, ptr %20, align 8
  br label %.loopexit

.loopexit:                                        ; preds = %.loopexit.loopexit, %49
  %54 = phi ptr [ %.pre, %.loopexit.loopexit ], [ %43, %49 ]
  %55 = tail call ptr @_cmsComputeInterpParamsEx(ptr noundef %0, ptr noundef %1, i32 noundef %2, i32 noundef %3, ptr noundef %54, i32 noundef 0) #18
  %56 = getelementptr inbounds i8, ptr %20, i64 8
  store ptr %55, ptr %56, align 8
  %57 = icmp eq ptr %55, null
  br i1 %57, label %58, label %_cmsStageAllocPlaceholder.exit.thread

58:                                               ; preds = %.loopexit
  %59 = load ptr, ptr %18, align 8
  %.not.i52 = icmp eq ptr %59, null
  br i1 %.not.i52, label %cmsStageFree.exit53, label %60

60:                                               ; preds = %58
  tail call void %59(ptr noundef nonnull %9) #18
  br label %cmsStageFree.exit53

cmsStageFree.exit53:                              ; preds = %58, %60
  %61 = load ptr, ptr %9, align 8
  tail call void @_cmsFree(ptr noundef %61, ptr noundef nonnull %9) #18
  br label %_cmsStageAllocPlaceholder.exit.thread

_cmsStageAllocPlaceholder.exit.thread:            ; preds = %8, %.loopexit, %cmsStageFree.exit53, %cmsStageFree.exit51, %cmsStageFree.exit49, %cmsStageFree.exit, %7
  %.0 = phi ptr [ null, %7 ], [ null, %cmsStageFree.exit ], [ null, %cmsStageFree.exit49 ], [ null, %cmsStageFree.exit51 ], [ null, %cmsStageFree.exit53 ], [ %9, %.loopexit ], [ null, %8 ]
  ret ptr %.0
}